target datalayout = "e-m:e-p270:32:32-p271:32:32-p272:64:64-i64:64-i128:128-f80:128-n8:16:32:64-S128"
target triple = "x86_64-pc-linux-gnu"

%"class.llvm::Value" = type { i8, i8, i16, i32, ptr, ptr }
%"class.llvm::Use" = type { ptr, ptr, ptr, ptr }
%"class.llvm::iterator_range.174" = type { %"class.llvm::Value::use_iterator_impl.175", %"class.llvm::Value::use_iterator_impl.175" }
%"class.llvm::Value::use_iterator_impl.175" = type { ptr }

; Function Attrs: mustprogress nounwind uwtable
define linkonce_odr hidden void @_ZN4llvm14iterator_rangeINS_5Value17use_iterator_implIKNS_3UseEEEEC2ES5_S5_(ptr noundef nonnull align 8 dereferenceable(16) %0, ptr %1, ptr %2) unnamed_addr #1 comdat align 2 {
  %4 = alloca %"class.llvm::Value::use_iterator_impl.175", align 8
  %5 = alloca %"class.llvm::Value::use_iterator_impl.175", align 8
  %6 = alloca ptr, align 8
  %7 = getelementptr inbounds nuw %"class.llvm::Value::use_iterator_impl.175", ptr %4, i32 0, i32 0
  store ptr %1, ptr %7, align 8
  %8 = getelementptr inbounds nuw %"class.llvm::Value::use_iterator_impl.175", ptr %5, i32 0, i32 0
  store ptr %2, ptr %8, align 8
  store ptr %0, ptr %6, align 8
  %9 = load ptr, ptr %6, align 8
  %10 = getelementptr inbounds nuw %"class.llvm::iterator_range.174", ptr %9, i32 0, i32 0
  call void @llvm.memcpy.p0.p0.i64(ptr align 8 %10, ptr align 8 %4, i64 8, i1 false)
  %11 = getelementptr inbounds nuw %"class.llvm::iterator_range.174", ptr %9, i32 0, i32 1
  call void @llvm.memcpy.p0.p0.i64(ptr align 8 %11, ptr align 8 %5, i64 8, i1 false)
  ret void
}

; Function Attrs: mustprogress nounwind uwtable
define linkonce_odr hidden void @_ZN4llvm5Value17use_iterator_implIKNS_3UseEEC2Ev(ptr noundef nonnull align 8 dereferenceable(8) %0) unnamed_addr #1 comdat align 2 {
  %2 = alloca ptr, align 8
  store ptr %0, ptr %2, align 8
  %3 = load ptr, ptr %2, align 8
  %4 = getelementptr inbounds nuw %"class.llvm::Value::use_iterator_impl.175", ptr %3, i32 0, i32 0
  store ptr null, ptr %4, align 8
  ret void
}

; Function Attrs: mustprogress nounwind uwtable
define linkonce_odr hidden void @_ZN4llvm5Value17use_iterator_implIKNS_3UseEEC2EPS3_(ptr noundef nonnull align 8 dereferenceable(8) %0, ptr noundef %1) unnamed_addr #1 comdat align 2 {
  %3 = alloca ptr, align 8
  %4 = alloca ptr, align 8
  store ptr %0, ptr %3, align 8
  store ptr %1, ptr %4, align 8
  %5 = load ptr, ptr %3, align 8
  %6 = getelementptr inbounds nuw %"class.llvm::Value::use_iterator_impl.175", ptr %5, i32 0, i32 0
  %7 = load ptr, ptr %4, align 8
  store ptr %7, ptr %6, align 8
  ret void
}

; Function Attrs: mustprogress nounwind uwtable
define linkonce_odr { ptr, ptr } @_ZN4llvm10make_rangeINS_5Value17use_iterator_implIKNS_3UseEEEEENS_14iterator_rangeIT_EES7_S7_(ptr %0, ptr %1) #1 comdat {
  %3 = alloca %"class.llvm::iterator_range.174", align 8
  %4 = alloca %"class.llvm::Value::use_iterator_impl.175", align 8
  %5 = alloca %"class.llvm::Value::use_iterator_impl.175", align 8
  %6 = alloca %"class.llvm::Value::use_iterator_impl.175", align 8
  %7 = alloca %"class.llvm::Value::use_iterator_impl.175", align 8
  %8 = getelementptr inbounds nuw %"class.llvm::Value::use_iterator_impl.175", ptr %4, i32 0, i32 0
  store ptr %0, ptr %8, align 8
  %9 = getelementptr inbounds nuw %"class.llvm::Value::use_iterator_impl.175", ptr %5, i32 0, i32 0
  store ptr %1, ptr %9, align 8
  call void @llvm.memcpy.p0.p0.i64(ptr align 8 %6, ptr align 8 %4, i64 8, i1 false)
  call void @llvm.memcpy.p0.p0.i64(ptr align 8 %7, ptr align 8 %5, i64 8, i1 false)
  %10 = getelementptr inbounds nuw %"class.llvm::Value::use_iterator_impl.175", ptr %6, i32 0, i32 0
  %11 = load ptr, ptr %10, align 8
  %12 = getelementptr inbounds nuw %"class.llvm::Value::use_iterator_impl.175", ptr %7, i32 0, i32 0
  %13 = load ptr, ptr %12, align 8
  call void @_ZN4llvm14iterator_rangeINS_5Value17use_iterator_implIKNS_3UseEEEEC2ES5_S5_(ptr noundef nonnull align 8 dereferenceable(16) %3, ptr %11, ptr %13)
  %14 = load { ptr, ptr }, ptr %3, align 8
  ret { ptr, ptr } %14
}

; Function Attrs: mustprogress nounwind uwtable
define linkonce_odr hidden ptr @_ZNK4llvm5Value7use_endEv(ptr noundef nonnull align 8 dereferenceable(24) %0) #1 comdat align 2 {
  %2 = alloca %"class.llvm::Value::use_iterator_impl.175", align 8
  %3 = alloca ptr, align 8
  store ptr %0, ptr %3, align 8
  call void @_ZN4llvm5Value17use_iterator_implIKNS_3UseEEC2Ev(ptr noundef nonnull align 8 dereferenceable(8) %2)
  %4 = getelementptr inbounds nuw %"class.llvm::Value::use_iterator_impl.175", ptr %2, i32 0, i32 0
  %5 = load ptr, ptr %4, align 8
  ret ptr %5
}

; Function Attrs: mustprogress nounwind uwtable
define linkonce_odr hidden ptr @_ZNK4llvm5Value22materialized_use_beginEv(ptr noundef nonnull align 8 dereferenceable(24) %0) #1 comdat align 2 {
  %2 = alloca %"class.llvm::Value::use_iterator_impl.175", align 8
  %3 = alloca ptr, align 8
  store ptr %0, ptr %3, align 8
  %4 = load ptr, ptr %3, align 8
  %5 = getelementptr inbounds nuw %"class.llvm::Value", ptr %4, i32 0, i32 5
  %6 = load ptr, ptr %5, align 8
  call void @_ZN4llvm5Value17use_iterator_implIKNS_3UseEEC2EPS3_(ptr noundef nonnull align 8 dereferenceable(8) %2, ptr noundef %6)
  %7 = getelementptr inbounds nuw %"class.llvm::Value::use_iterator_impl.175", ptr %2, i32 0, i32 0
  %8 = load ptr, ptr %7, align 8
  ret ptr %8
}

; Function Attrs: mustprogress nounwind uwtable
define linkonce_odr hidden noundef ptr @_ZNK4llvm3Use7getNextEv(ptr noundef nonnull align 8 dereferenceable(32) %0) #1 comdat align 2 {
  %2 = alloca ptr, align 8
  store ptr %0, ptr %2, align 8
  %3 = load ptr, ptr %2, align 8
  %4 = getelementptr inbounds nuw %"class.llvm::Use", ptr %3, i32 0, i32 1
  %5 = load ptr, ptr %4, align 8
  ret ptr %5
}

; Function Attrs: mustprogress nounwind uwtable
define linkonce_odr hidden noundef zeroext i1 @_ZNK4llvm5Value17use_iterator_implIKNS_3UseEEeqERKS4_(ptr noundef nonnull align 8 dereferenceable(8) %0, ptr noundef nonnull align 8 dereferenceable(8) %1) #1 comdat align 2 {
  %3 = alloca ptr, align 8
  %4 = alloca ptr, align 8
  store ptr %0, ptr %3, align 8
  store ptr %1, ptr %4, align 8
  %5 = load ptr, ptr %3, align 8
  %6 = getelementptr inbounds nuw %"class.llvm::Value::use_iterator_impl.175", ptr %5, i32 0, i32 0
  %7 = load ptr, ptr %6, align 8
  %8 = load ptr, ptr %4, align 8
  %9 = getelementptr inbounds nuw %"class.llvm::Value::use_iterator_impl.175", ptr %8, i32 0, i32 0
  %10 = load ptr, ptr %9, align 8
  %11 = icmp eq ptr %7, %10
  ret i1 %11
}

; Function Attrs: mustprogress nounwind uwtable
define linkonce_odr hidden { ptr, ptr } @_ZNK4llvm5Value17materialized_usesEv(ptr noundef nonnull align 8 dereferenceable(24) %0) #1 comdat align 2 {
  %2 = alloca %"class.llvm::iterator_range.174", align 8
  %3 = alloca ptr, align 8
  %4 = alloca %"class.llvm::Value::use_iterator_impl.175", align 8
  %5 = alloca %"class.llvm::Value::use_iterator_impl.175", align 8
  store ptr %0, ptr %3, align 8
  %6 = load ptr, ptr %3, align 8
  %7 = call ptr @_ZNK4llvm5Value22materialized_use_beginEv(ptr noundef nonnull align 8 dereferenceable(24) %6)
  %8 = getelementptr inbounds nuw %"class.llvm::Value::use_iterator_impl.175", ptr %4, i32 0, i32 0
  store ptr %7, ptr %8, align 8
  %9 = call ptr @_ZNK4llvm5Value7use_endEv(ptr noundef nonnull align 8 dereferenceable(24) %6)
  %10 = getelementptr inbounds nuw %"class.llvm::Value::use_iterator_impl.175", ptr %5, i32 0, i32 0
  store ptr %9, ptr %10, align 8
  %11 = getelementptr inbounds nuw %"class.llvm::Value::use_iterator_impl.175", ptr %4, i32 0, i32 0
  %12 = load ptr, ptr %11, align 8
  %13 = getelementptr inbounds nuw %"class.llvm::Value::use_iterator_impl.175", ptr %5, i32 0, i32 0
  %14 = load ptr, ptr %13, align 8
  %15 = call { ptr, ptr } @_ZN4llvm10make_rangeINS_5Value17use_iterator_implIKNS_3UseEEEEENS_14iterator_rangeIT_EES7_S7_(ptr %12, ptr %14)
  %16 = getelementptr inbounds nuw { ptr, ptr }, ptr %2, i32 0, i32 0
  %17 = extractvalue { ptr, ptr } %15, 0
  store ptr %17, ptr %16, align 8
  %18 = getelementptr inbounds nuw { ptr, ptr }, ptr %2, i32 0, i32 1
  %19 = extractvalue { ptr, ptr } %15, 1
  store ptr %19, ptr %18, align 8
  %20 = load { ptr, ptr }, ptr %2, align 8
  ret { ptr, ptr } %20
}

; Function Attrs: mustprogress nounwind uwtable
define linkonce_odr hidden void @_ZNK4llvm5Value26assertModuleIsMaterializedEv(ptr noundef nonnull align 8 dereferenceable(24) %0) #1 comdat align 2 {
  %2 = alloca ptr, align 8
  store ptr %0, ptr %2, align 8
  ret void
}

; Function Attrs: mustprogress nounwind uwtable
define linkonce_odr hidden noundef nonnull align 8 dereferenceable(8) ptr @_ZN4llvm5Value17use_iterator_implIKNS_3UseEEppEv(ptr noundef nonnull align 8 dereferenceable(8) %0) #1 comdat align 2 {
  %2 = alloca ptr, align 8
  store ptr %0, ptr %2, align 8
  %3 = load ptr, ptr %2, align 8
  %4 = getelementptr inbounds nuw %"class.llvm::Value::use_iterator_impl.175", ptr %3, i32 0, i32 0
  %5 = load ptr, ptr %4, align 8
  %6 = call noundef ptr @_ZNK4llvm3Use7getNextEv(ptr noundef nonnull align 8 dereferenceable(32) %5)
  %7 = getelementptr inbounds nuw %"class.llvm::Value::use_iterator_impl.175", ptr %3, i32 0, i32 0
  store ptr %6, ptr %7, align 8
  ret ptr %3
}

; Function Attrs: mustprogress nounwind uwtable
define linkonce_odr hidden noundef nonnull align 8 dereferenceable(32) ptr @_ZNK4llvm5Value17use_iterator_implIKNS_3UseEEdeEv(ptr noundef nonnull align 8 dereferenceable(8) %0) #1 comdat align 2 {
  %2 = alloca ptr, align 8
  store ptr %0, ptr %2, align 8
  %3 = load ptr, ptr %2, align 8
  %4 = getelementptr inbounds nuw %"class.llvm::Value::use_iterator_impl.175", ptr %3, i32 0, i32 0
  %5 = load ptr, ptr %4, align 8
  ret ptr %5
}

; Function Attrs: mustprogress nounwind uwtable
define linkonce_odr hidden noundef zeroext i1 @_ZNK4llvm5Value17use_iterator_implIKNS_3UseEEneERKS4_(ptr noundef nonnull align 8 dereferenceable(8) %0, ptr noundef nonnull align 8 dereferenceable(8) %1) #1 comdat align 2 {
  %3 = alloca ptr, align 8
  %4 = alloca ptr, align 8
  store ptr %0, ptr %3, align 8
  store ptr %1, ptr %4, align 8
  %5 = load ptr, ptr %3, align 8
  %6 = load ptr, ptr %4, align 8
  %7 = call noundef zeroext i1 @_ZNK4llvm5Value17use_iterator_implIKNS_3UseEEeqERKS4_(ptr noundef nonnull align 8 dereferenceable(8) %5, ptr noundef nonnull align 8 dereferenceable(8) %6)
  %8 = xor i1 %7, true
  ret i1 %8
}

; Function Attrs: mustprogress nounwind uwtable
define linkonce_odr hidden ptr @_ZNK4llvm14iterator_rangeINS_5Value17use_iterator_implIKNS_3UseEEEE3endEv(ptr noundef nonnull align 8 dereferenceable(16) %0) #1 comdat align 2 {
  %2 = alloca %"class.llvm::Value::use_iterator_impl.175", align 8
  %3 = alloca ptr, align 8
  store ptr %0, ptr %3, align 8
  %4 = load ptr, ptr %3, align 8
  %5 = getelementptr inbounds nuw %"class.llvm::iterator_range.174", ptr %4, i32 0, i32 1
  call void @llvm.memcpy.p0.p0.i64(ptr align 8 %2, ptr align 8 %5, i64 8, i1 false)
  %6 = getelementptr inbounds nuw %"class.llvm::Value::use_iterator_impl.175", ptr %2, i32 0, i32 0
  %7 = load ptr, ptr %6, align 8
  ret ptr %7
}

; Function Attrs: mustprogress nounwind uwtable
define linkonce_odr hidden ptr @_ZNK4llvm14iterator_rangeINS_5Value17use_iterator_implIKNS_3UseEEEE5beginEv(ptr noundef nonnull align 8 dereferenceable(16) %0) #1 comdat align 2 {
  %2 = alloca %"class.llvm::Value::use_iterator_impl.175", align 8
  %3 = alloca ptr, align 8
  store ptr %0, ptr %3, align 8
  %4 = load ptr, ptr %3, align 8
  %5 = getelementptr inbounds nuw %"class.llvm::iterator_range.174", ptr %4, i32 0, i32 0
  call void @llvm.memcpy.p0.p0.i64(ptr align 8 %2, ptr align 8 %5, i64 8, i1 false)
  %6 = getelementptr inbounds nuw %"class.llvm::Value::use_iterator_impl.175", ptr %2, i32 0, i32 0
  %7 = load ptr, ptr %6, align 8
  ret ptr %7
}

; Function Attrs: mustprogress nounwind uwtable
define linkonce_odr hidden { ptr, ptr } @_ZNK4llvm5Value4usesEv(ptr noundef nonnull align 8 dereferenceable(24) %0) #1 comdat align 2 {
  %2 = alloca %"class.llvm::iterator_range.174", align 8
  %3 = alloca ptr, align 8
  store ptr %0, ptr %3, align 8
  %4 = load ptr, ptr %3, align 8
  call void @_ZNK4llvm5Value26assertModuleIsMaterializedEv(ptr noundef nonnull align 8 dereferenceable(24) %4)
  %5 = call { ptr, ptr } @_ZNK4llvm5Value17materialized_usesEv(ptr noundef nonnull align 8 dereferenceable(24) %4)
  %6 = getelementptr inbounds nuw { ptr, ptr }, ptr %2, i32 0, i32 0
  %7 = extractvalue { ptr, ptr } %5, 0
  store ptr %7, ptr %6, align 8
  %8 = getelementptr inbounds nuw { ptr, ptr }, ptr %2, i32 0, i32 1
  %9 = extractvalue { ptr, ptr } %5, 1
  store ptr %9, ptr %8, align 8
  %10 = load { ptr, ptr }, ptr %2, align 8
  ret { ptr, ptr } %10
}

; Function Attrs: mustprogress nounwind uwtable
define dso_local noundef i32 @_ZN4llvm27DeadArgumentEliminationPass10surveyUsesEPKNS_5ValueERNS_11SmallVectorINS0_8RetOrArgELj5EEE(ptr noundef nonnull align 8 dereferenceable(145) %0, ptr noundef %1, ptr noundef nonnull align 8 dereferenceable(96) %2) #1 align 2 {
  %4 = alloca ptr, align 8
  %5 = alloca ptr, align 8
  %6 = alloca ptr, align 8
  %7 = alloca i32, align 4
  %8 = alloca ptr, align 8
  %9 = alloca %"class.llvm::iterator_range.174", align 8
  %10 = alloca %"class.llvm::Value::use_iterator_impl.175", align 8
  %11 = alloca %"class.llvm::Value::use_iterator_impl.175", align 8
  %12 = alloca ptr, align 8
  store ptr %0, ptr %4, align 8
  store ptr %1, ptr %5, align 8
  store ptr %2, ptr %6, align 8
  %13 = load ptr, ptr %4, align 8
  store i32 1, ptr %7, align 4
  %14 = load ptr, ptr %5, align 8
  %15 = call { ptr, ptr } @_ZNK4llvm5Value4usesEv(ptr noundef nonnull align 8 dereferenceable(24) %14)
  %16 = getelementptr inbounds nuw { ptr, ptr }, ptr %9, i32 0, i32 0
  %17 = extractvalue { ptr, ptr } %15, 0
  store ptr %17, ptr %16, align 8
  %18 = getelementptr inbounds nuw { ptr, ptr }, ptr %9, i32 0, i32 1
  %19 = extractvalue { ptr, ptr } %15, 1
  store ptr %19, ptr %18, align 8
  store ptr %9, ptr %8, align 8
  %20 = load ptr, ptr %8, align 8
  %21 = call ptr @_ZNK4llvm14iterator_rangeINS_5Value17use_iterator_implIKNS_3UseEEEE5beginEv(ptr noundef nonnull align 8 dereferenceable(16) %20)
  %22 = getelementptr inbounds nuw %"class.llvm::Value::use_iterator_impl.175", ptr %10, i32 0, i32 0
  store ptr %21, ptr %22, align 8
  %23 = load ptr, ptr %8, align 8
  %24 = call ptr @_ZNK4llvm14iterator_rangeINS_5Value17use_iterator_implIKNS_3UseEEEE3endEv(ptr noundef nonnull align 8 dereferenceable(16) %23)
  %25 = getelementptr inbounds nuw %"class.llvm::Value::use_iterator_impl.175", ptr %11, i32 0, i32 0
  store ptr %24, ptr %25, align 8
  br label %26

26:                                               ; preds = %37, %3
  %27 = call noundef zeroext i1 @_ZNK4llvm5Value17use_iterator_implIKNS_3UseEEneERKS4_(ptr noundef nonnull align 8 dereferenceable(8) %10, ptr noundef nonnull align 8 dereferenceable(8) %11)
  br i1 %27, label %28, label %39

28:                                               ; preds = %26
  %29 = call noundef nonnull align 8 dereferenceable(32) ptr @_ZNK4llvm5Value17use_iterator_implIKNS_3UseEEdeEv(ptr noundef nonnull align 8 dereferenceable(8) %10)
  store ptr %29, ptr %12, align 8
  %30 = load ptr, ptr %12, align 8
  %31 = load ptr, ptr %6, align 8
  %32 = call noundef i32 @_ZN4llvm27DeadArgumentEliminationPass9surveyUseEPKNS_3UseERNS_11SmallVectorINS0_8RetOrArgELj5EEEj(ptr noundef nonnull align 8 dereferenceable(145) %13, ptr noundef %30, ptr noundef nonnull align 8 dereferenceable(96) %31, i32 noundef -1)
  store i32 %32, ptr %7, align 4
  %33 = load i32, ptr %7, align 4
  %34 = icmp eq i32 %33, 0
  br i1 %34, label %35, label %36

35:                                               ; preds = %28
  br label %39

36:                                               ; preds = %28
  br label %37

37:                                               ; preds = %36
  %38 = call noundef nonnull align 8 dereferenceable(8) ptr @_ZN4llvm5Value17use_iterator_implIKNS_3UseEEppEv(ptr noundef nonnull align 8 dereferenceable(8) %10)
  br label %26

39:                                               ; preds = %35, %26
  %40 = load i32, ptr %7, align 4
  ret i32 %40
}