; Function Attrs: mustprogress nounwind uwtable
define dso_local noundef range(i32 0, 2) i32 @_ZN4llvm27DeadArgumentEliminationPass10surveyUsesEPKNS_5ValueERNS_11SmallVectorINS0_8RetOrArgELj5EEE(ptr noundef nonnull align 8 dereferenceable(145) %0, ptr nocapture noundef readonly %1, ptr noundef nonnull align 8 dereferenceable(96) %2) local_unnamed_addr #0 align 2 {
  %4 = getelementptr inbounds nuw i8, ptr %1, i64 16
  %.sroa.010.014 = load ptr, ptr %4, align 8
  %.not15 = icmp eq ptr %.sroa.010.014, null
  br i1 %.not15, label %._crit_edge, label %.lr.ph

5:                                                ; preds = %.lr.ph
  %6 = getelementptr inbounds nuw i8, ptr %.sroa.010.016, i64 8
  %.sroa.010.0 = load ptr, ptr %6, align 8
  %.not = icmp eq ptr %.sroa.010.0, null
  br i1 %.not, label %._crit_edge, label %.lr.ph

.lr.ph:                                           ; preds = %3, %5
  %.sroa.010.016 = phi ptr [ %.sroa.010.0, %5 ], [ %.sroa.010.014, %3 ]
  %7 = tail call noundef i32 @_ZN4llvm27DeadArgumentEliminationPass9surveyUseEPKNS_3UseERNS_11SmallVectorINS0_8RetOrArgELj5EEEj(ptr noundef nonnull align 8 dereferenceable(145) %0, ptr noundef nonnull %.sroa.010.016, ptr noundef nonnull align 8 dereferenceable(96) %2, i32 noundef -1)
  %8 = icmp eq i32 %7, 0
  br i1 %8, label %._crit_edge, label %5

._crit_edge:                                      ; preds = %5, %.lr.ph, %3
  %.1 = phi i32 [ 1, %3 ], [ 0, %.lr.ph ], [ 1, %5 ]
  ret i32 %.1
}